; Function Attrs: mustprogress nofree norecurse nosync nounwind willreturn memory(argmem: read) uwtable
define internal range(i32 0, 6) i32 @check_purpose_ns_ssl_server(ptr readnone captures(none) %0, ptr noundef readonly captures(none) %1, i32 noundef %2) #8 {
  %4 = getelementptr inbounds nuw i8, ptr %1, i64 64
  %5 = load i64, ptr %4, align 8, !tbaa !6
  %6 = and i64 %5, 4
  %.not.i = icmp eq i64 %6, 0
  br i1 %.not.i, label %11, label %7

7:                                                ; preds = %3
  %8 = getelementptr inbounds nuw i8, ptr %1, i64 80
  %9 = load i64, ptr %8, align 8, !tbaa !53
  %10 = and i64 %9, 17
  %.not8.i = icmp eq i64 %10, 0
  br i1 %.not8.i, label %check_purpose_ssl_server.exit.thread, label %11

11:                                               ; preds = %7, %3
  %.not9.i = icmp eq i32 %2, 0
  br i1 %.not9.i, label %30, label %12

12:                                               ; preds = %11
  %13 = and i64 %5, 2
  %.not.i.i.i = icmp ne i64 %13, 0
  br i1 %.not.i.i.i, label %14, label %18

14:                                               ; preds = %12
  %15 = getelementptr inbounds nuw i8, ptr %1, i64 72
  %16 = load i64, ptr %15, align 8, !tbaa !52
  %17 = and i64 %16, 4
  %.not8.i.i.i = icmp eq i64 %17, 0
  br i1 %.not8.i.i.i, label %check_purpose_ssl_server.exit.thread, label %18

18:                                               ; preds = %14, %12
  %19 = and i64 %5, 1
  %.not9.i.i.i = icmp eq i64 %19, 0
  br i1 %.not9.i.i.i, label %20, label %check_ca.exit.i.i

20:                                               ; preds = %18
  %21 = and i64 %5, 8256
  %22 = icmp eq i64 %21, 8256
  %brmerge.i.i.i = or i1 %22, %.not.i.i.i
  %.mux.i.i.i = select i1 %22, i32 3, i32 4
  br i1 %brmerge.i.i.i, label %check_ca.exit.thread13.i.i, label %23

23:                                               ; preds = %20
  %24 = and i64 %5, 8
  %.not11.i.i.i = icmp eq i64 %24, 0
  br i1 %.not11.i.i.i, label %check_purpose_ssl_server.exit.thread, label %25

25:                                               ; preds = %23
  %26 = getelementptr inbounds nuw i8, ptr %1, i64 88
  %27 = load i64, ptr %26, align 8, !tbaa !56
  %28 = and i64 %27, 4
  %.not7.i.i = icmp eq i64 %28, 0
  br i1 %.not7.i.i, label %check_purpose_ssl_server.exit.thread, label %check_ca.exit.thread13.i.i

check_ca.exit.i.i:                                ; preds = %18
  %29 = and i64 %5, 16
  %cond.i.i = icmp eq i64 %29, 0
  br i1 %cond.i.i, label %check_purpose_ssl_server.exit.thread, label %check_ca.exit.thread13.i.i

check_ca.exit.thread13.i.i:                       ; preds = %check_ca.exit.i.i, %25, %20
  %.0.i12.i.i = phi i32 [ 1, %check_ca.exit.i.i ], [ %.mux.i.i.i, %20 ], [ 5, %25 ]
  br label %check_purpose_ssl_server.exit.thread

30:                                               ; preds = %11
  %31 = and i64 %5, 8
  %.not10.i = icmp eq i64 %31, 0
  br i1 %.not10.i, label %36, label %32

32:                                               ; preds = %30
  %33 = getelementptr inbounds nuw i8, ptr %1, i64 88
  %34 = load i64, ptr %33, align 8, !tbaa !56
  %35 = and i64 %34, 64
  %.not11.i = icmp eq i64 %35, 0
  br i1 %.not11.i, label %check_purpose_ssl_server.exit.thread, label %36

36:                                               ; preds = %32, %30
  %37 = and i64 %5, 2
  %.not12.i = icmp eq i64 %37, 0
  br i1 %.not12.i, label %check_purpose_ssl_server.exit.thread14, label %38

38:                                               ; preds = %36
  %39 = getelementptr inbounds nuw i8, ptr %1, i64 72
  %40 = load i64, ptr %39, align 8, !tbaa !52
  %41 = and i64 %40, 168
  %.not13.i = icmp eq i64 %41, 0
  br i1 %.not13.i, label %check_purpose_ssl_server.exit.thread, label %check_purpose_ssl_server.exit

check_purpose_ssl_server.exit:                    ; preds = %38
  %42 = getelementptr inbounds nuw i8, ptr %1, i64 72
  %43 = load i64, ptr %42, align 8, !tbaa !52
  %44 = and i64 %43, 32
  %.not11 = icmp eq i64 %44, 0
  br i1 %.not11, label %check_purpose_ssl_server.exit.thread, label %check_purpose_ssl_server.exit.thread14

check_purpose_ssl_server.exit.thread14:           ; preds = %36, %check_purpose_ssl_server.exit
  br label %check_purpose_ssl_server.exit.thread

check_purpose_ssl_server.exit.thread:             ; preds = %check_ca.exit.thread13.i.i, %23, %25, %14, %check_ca.exit.i.i, %38, %32, %7, %check_purpose_ssl_server.exit, %check_purpose_ssl_server.exit.thread14
  %.0 = phi i32 [ 1, %check_purpose_ssl_server.exit.thread14 ], [ 0, %check_purpose_ssl_server.exit ], [ 0, %23 ], [ 0, %25 ], [ 0, %14 ], [ 0, %check_ca.exit.i.i ], [ %.0.i12.i.i, %check_ca.exit.thread13.i.i ], [ 0, %38 ], [ 0, %32 ], [ 0, %7 ]
  ret i32 %.0
}